; Function Attrs: mustprogress uwtable
define noundef i64 @_ZN6duckdb13ParquetReader7NumRowsEv(ptr noundef nonnull align 8 dereferenceable(560) %0) local_unnamed_addr #3 align 2 {
  %2 = getelementptr inbounds nuw i8, ptr %0, i64 72
  %3 = tail call noundef ptr @_ZNK6duckdb10shared_ptrINS_24ParquetFileMetadataCacheELb1EEptEv(ptr noundef nonnull align 8 dereferenceable(16) %2)
  %4 = getelementptr inbounds nuw i8, ptr %3, i64 8
  %5 = load ptr, ptr %4, align 8, !tbaa !304
  %6 = getelementptr inbounds nuw i8, ptr %5, i64 40
  %7 = load i64, ptr %6, align 8, !tbaa !656
  ret i64 %7
}